c__builtin__
frozenset
p1
((lp2
Vgw
p3
aVco.fr
p4
aVgu
p5
aVgt
p6
aVgs
p7
aVgr
p8
aVgq
p9
aVgp
p10
aVorg.mh
p11
aVorg.mk
p12
aVorg.mm
p13
aVorg.mc
p14
aVgy
p15
aVorg.mn
p16
aVgg
p17
aVgf
p18
aVge
p19
aVgd
p20
aVorg.mu
p21
aVgb
p22
aVga
p23
aV\u0c2d\u0c3e\u0c30\u0c24\u0c4d
p24
aVco.fk
p25
aVgn
p26
aVgm
p27
aVgl
p28
aVco.fo
p29
aVgi
p30
aVgh
p31
aVco.mn
p32
aVco.mo
p33
aVco.ml
p34
aVco.mm
p35
aVtz
p36
aVorg.mg
p37
aVco.mh
p38
aV\u09ad\u09be\u09b0\u09a4
p39
aVtv
p40
aVtw
p41
aVtt
p42
aVco.me
p43
aVtr
p44
aVco.mc
p45
aVtp
p46
aVco.ma
p47
aVtn
p48
aVto
p49
aVtl
p50
aVtm
p51
aVtj
p52
aVtk
p53
aVth
p54
aVco.my
p55
aVtf
p56
aVtg
p57
aVtd
p58
aVco.mu
p59
aVco.mr
p60
aVtc
p61
aVco.mp
p62
aVco.mq
p63
aVac.sz
p64
aVac.gb
p65
aVorg.py
p66
aVcoop
p67
aVac.hk
p68
aVorg.tp
p69
aVorg.tv
p70
aVac.hn
p71
aVac.hm
p72
aVorg.ml
p73
aVorg.tj
p74
aVac.hr
p75
aVorg.th
p76
aVac.ga
p77
aVorg.tn
p78
aVorg.mo
p79
aVac.hu
p80
aVac.ht
p81
aVac.gf
p82
aVorg.tf
p83
aVco.pn
p84
aVorg.td
p85
aVorg.mq
p86
aVgov
p87
aVac.gd
p88
aVorg.mp
p89
aVorg.ms
p90
aVorg.mr
p91
aVorg.to
p92
aVorg.yt
p93
aV\ud14c\uc2a4\ud2b8
p94
aVac.gh
p95
aVorg.mt
p96
aVzm
p97
aVac.gi
p98
aVtel
p99
aVorg.mw
p100
aV\u0440\u0444
p101
aVedu
p102
aVza
p103
aVorg.my
p104
aVac.gm
p105
aVac.gl
p106
aVco.fj
p107
aVzw
p108
aV\u0645\u0635\u0631
p109
aVco.fi
p110
aVorg.ni
p111
aVac.gr
p112
aVco.pk
p113
aVorg.mz
p114
aV\u0b87\u0bb2\u0b99\u0bcd\u0b95\u0bc8
p115
aVco.pl
p116
aVac.gs
p117
aVco.pa
p118
aVco.pe
p119
aVac.gp
p120
aVasia
p121
aVco.pf
p122
aVco.py
p123
aVac.gq
p124
aVco.fm
p125
aVorg.ne
p126
aV\u4e2d\u56fd
p127
aVnet
p128
aVco.pr
p129
aVco.pt
p130
aVco.pw
p131
aVac.gw
p132
aVorg.ng
p133
aVac.gt
p134
aV\u30c6\u30b9\u30c8
p135
aVac.gu
p136
aVorg.na
p137
aVac.qa
p138
aVac.ch
p139
aVac.uz
p140
aVorg.nc
p141
aVco.mk
p142
aVorg.fr
p143
aVco.mf
p144
aVco.mg
p145
aVorg.fm
p146
aVorg.fo
p147
aVorg.fi
p148
aVorg.fj
p149
aVorg.fk
p150
aVco.ca
p151
aVac.kg
p152
aVorg.sn
p153
aVco.so
p154
aVac.ke
p155
aVorg.qa
p156
aVorg.ma
p157
aVco.ge
p158
aVorg.sz
p159
aVco.ir
p160
aVco.is
p161
aVco.iq
p162
aVorg.sy
p163
aVco.it
p164
aVorg.sx
p165
aVac.cg
p166
aVac.kn
p167
aVorg.pa
p168
aVorg.nr
p169
aVco.id
p170
aVco.ie
p171
aV\u0627\u06cc\u0631\u0627\u0646
p172
aVco.mz
p173
aVco.in
p174
aVco.io
p175
aVco.il
p176
aVco.im
p177
aVorg.sv
p178
aVac.lv
p179
aVac.lu
p180
aVac.km
p181
aVac.ls
p182
aVac.lr
p183
aVorg.dz
p184
aV\u4e2d\u570b
p185
aVorg.sr
p186
aVco.mv
p187
aVac.lc
p188
aVac.kh
p189
aVac.la
p190
aVco.mw
p191
aVac.lk
p192
aVco.mt
p193
aVac.li
p194
aVme
p195
aVmd
p196
aVmg
p197
aVmf
p198
aVma
p199
aVac.gg
p200
aVmc
p201
aVac.ge
p202
aVmm
p203
aVml
p204
aVmo
p205
aVmn
p206
aVac.gn
p207
aVmh
p208
aVmk
p209
aVcat
p210
aVmu
p211
aVmt
p212
aVmw
p213
aVmv
p214
aVmq
p215
aVmp
p216
aVms
p217
aVmr
p218
aVorg.mv
p219
aVac.kr
p220
aVac.gy
p221
aVmy
p222
aVmx
p223
aVmz
p224
aVorg.tz
p225
aVac.ro
p226
aVac.kp
p227
aVac.so
p228
aVac.re
p229
aVorg.sh
p230
aVorg.sg
p231
aVac.sm
p232
aVac.ru
p233
aV\u09ac\u09be\u0982\u09b2\u09be
p234
aVac.rw
p235
aVac.rs
p236
aVac.sk
p237
aVorg.co
p238
aVorg.cn
p239
aVorg.cm
p240
aVorg.cl
p241
aVorg.ck
p242
aVorg.ci
p243
aVorg.ch
p244
aVorg.cg
p245
aVorg.cf
p246
aVtravel
p247
aVorg.cd
p248
aV\u53f0\u6e7e
p249
aVorg.ca
p250
aVorg.sb
p251
aVorg.tr
p252
aVorg.mx
p253
aVorg.cz
p254
aVorg.cy
p255
aVorg.cx
p256
aVorg.cw
p257
aVorg.cv
p258
aVorg.cu
p259
aVorg.cr
p260
aVac.uy
p261
aVfr
p262
aVac.se
p263
aVac.us
p264
aVorg.va
p265
aVorg.gu
p266
aVac.uk
p267
aVorg.tt
p268
aVfi
p269
aVfj
p270
aVfk
p271
aVfm
p272
aVfo
p273
aVco.bg
p274
aVsz
p275
aVsy
p276
aVsx
p277
aVco.bb
p278
aVco.ba
p279
aVorg.tk
p280
aVco.bo
p281
aVsr
p282
aVco.bm
p283
aVco.bl
p284
aVsv
p285
aVsu
p286
aVst
p287
aVsk
p288
aVsj
p289
aVsi
p290
aVsh
p291
aVso
p292
aVsn
p293
aVsm
p294
aVsl
p295
aVsc
p296
aVsb
p297
aVsa
p298
aVco.ws
p299
aVsg
p300
aVco.bz
p301
aVse
p302
aVsd
p303
aVac.il
p304
aVac.im
p305
aVac.in
p306
aVac.io
p307
aVorg.ph
p308
aVorg.tl
p309
aVac.id
p310
aVorg.cc
p311
aVorg.us
p312
aVorg.tm
p313
aVorg.uk
p314
aVorg.um
p315
aVorg.tc
p316
aVac.it
p317
aVco.sx
p318
aV\u067e\u0627\u06a9\u0633\u062a\u0627\u0646
p319
aVac.ir
p320
aVac.is
p321
aVco.ar
p322
aVlb
p323
aVlc
p324
aVla
p325
aVlk
p326
aVli
p327
aVlv
p328
aVlt
p329
aVlu
p330
aVlr
p331
aVls
p332
aVac.tv
p333
aV\u0441\u0440\u0431
p334
aVco.jp
p335
aVly
p336
aVac.ua
p337
aVye
p338
aVco.sj
p339
aVyt
p340
aVorg.ar
p341
aVname
p342
aVco.ua
p343
aVac.vi
p344
aVco.um
p345
aVorg.sl
p346
aVco.uk
p347
aV\u0e44\u0e17\u0e22
p348
aVco.us
p349
aVorg.rw
p350
aVco.sy
p351
aVac.tk
p352
aVorg.zw
p353
aVco.uz
p354
aVco.uy
p355
aVorg.ws
p356
aVac.vu
p357
aVeh
p358
aVee
p359
aVeg
p360
aVco.tn
p361
aVec
p362
aVac.va
p363
aVco.zw
p364
aVac.vc
p365
aVac.ve
p366
aVac.vg
p367
aVeu
p368
aVet
p369
aVes
p370
aVer
p371
aVorg.gs
p372
aVru
p373
aVorg.gq
p374
aVrw
p375
aVorg.gw
p376
aV\u9999\u6e2f
p377
aVrs
p378
aVorg.sj
p379
aVorg.gy
p380
aVco.rw
p381
aVre
p382
aVorg.ga
p383
aVorg.gg
p384
aVorg.gf
p385
aVorg.ge
p386
aVorg.gd
p387
aVorg.gi
p388
aVro
p389
aVorg.gn
p390
aVorg.gm
p391
aVorg.gl
p392
aVorg.nl
p393
aVac.do
p394
aVorg.no
p395
aVco.gy
p396
aVorg.si
p397
aVco.gt
p398
aVco.gu
p399
aVorg.nf
p400
aVco.gw
p401
aVco.gp
p402
aVco.gq
p403
aVco.gr
p404
aVco.gs
p405
aVco.gl
p406
aVco.gm
p407
aVco.gn
p408
aVco.gh
p409
aVco.gi
p410
aVorg.nz
p411
aVco.gd
p412
aVorg
p413
aVco.gf
p414
aVco.gg
p415
aVorg.np
p416
aVco.ga
p417
aVco.gb
p418
aVco.ni
p419
aV\ud55c\uad6d
p420
aVco.no
p421
aVco.nl
p422
aVco.nc
p423
aVco.na
p424
aVco.ru
p425
aVco.ng
p426
aVco.nf
p427
aVco.ne
p428
aVco.nz
p429
aVco.sb
p430
aVco.nr
p431
aVco.np
p432
aVco.nu
p433
aVac.um
p434
aVac.mp
p435
aVac.mq
p436
aVac.mr
p437
aVac.ms
p438
aVac.mt
p439
aVac.mu
p440
aVac.mv
p441
aVac.mw
p442
aVac.mx
p443
aVac.my
p444
aVac.mz
p445
aVac.ma
p446
aVac.mc
p447
aVac.md
p448
aVac.me
p449
aVac.mf
p450
aVac.mg
p451
aVac.mh
p452
aVorg.gb
p453
aVac.mk
p454
aVac.ml
p455
aVac.mm
p456
aVac.mn
p457
aVac.mo
p458
aV\u10d2\u10d4
p459
aVac.dm
p460
aVac.dk
p461
aVac.dj
p462
aVco.bq
p463
aVac.de
p464
aVorg.io
p465
aVac.dz
p466
aVac.ug
p467
aVac.eh
p468
aVco.bf
p469
aVco.sa
p470
aVorg.jm
p471
aVco.be
p472
aVco.bd
p473
aVorg.id
p474
aVorg.tg
p475
aVco.qa
p476
aVorg.jp
p477
aVco.bn
p478
aVorg.sc
p479
aVorg.kg
p480
aVorg.ke
p481
aVac.ec
p482
aV\u0633\u0648\u0631\u064a\u0629
p483
aVorg.kn
p484
aVpro
p485
aVorg.pt
p486
aVorg.ki
p487
aVco.bj
p488
aVco.de
p489
aVco.bi
p490
aVorg.kp
p491
aVco.dm
p492
aVco.do
p493
aV\u062a\u0648\u0646\u0633
p494
aVorg.kz
p495
aVco.dk
p496
aVco.dj
p497
aV\u0642\u0637\u0631
p498
aVco.cc
p499
aVco.cd
p500
aVmil
p501
aVco.cf
p502
aVco.bv
p503
aVco.ch
p504
aVco.ci
p505
aVco.ck
p506
aVco.cl
p507
aVco.cm
p508
aVco.cn
p509
aV\u0622\u0632\u0645\u0627\u06cc\u0634\u06cc
p510
aV\u092d\u093e\u0930\u0924
p511
aVco.cr
p512
aVco.bt
p513
aVco.cu
p514
aVco.cv
p515
aVco.cw
p516
aVco.cx
p517
aVco.bs
p518
aVco.cz
p519
aVorg.hm
p520
aV\u0627\u0645\u0627\u0631\u0627\u062a
p521
aVco.br
p522
aVac.je
p523
aVorg.rs
p524
aV\u6d4b\u8bd5
p525
aVco.ph
p526
aVac.jm
p527
aVac.jo
p528
aVorg.jo
p529
aVco.at
p530
aVco.an
p531
aVco.pm
p532
aVco.au
p533
aVorg.ro
p534
aV\u0b9a\u0bbf\u0b99\u0bcd\u0b95\u0baa\u0bcd\u0baa\u0bc2\u0bb0\u0bcd
p535
aVkg
p536
aVke
p537
aVorg.pg
p538
aVorg.ye
p539
aVki
p540
aVkh
p541
aVkn
p542
aVkm
p543
aVorg.je
p544
aVco.jo
p545
aVkr
p546
aVco.jm
p547
aVkp
p548
aVkw
p549
aVco.by
p550
aVco.md
p551
aVkz
p552
aVky
p553
aVorg.uy
p554
aVorg.md
p555
aVco.am
p556
aVorg.uz
p557
aVco.pg
p558
aVco.bh
p559
aVorg.re
p560
aVco.vc
p561
aVco.va
p562
aVco.vg
p563
aVco.ve
p564
aVco.vi
p565
aVarpa
p566
aVco.vn
p567
aVorg.pk
p568
aVco.bw
p569
aVco.vu
p570
aVac.ie
p571
aVac.sn
p572
aVdo
p573
aVac.sl
p574
aVdm
p575
aVdj
p576
aVdk
p577
aVac.sh
p578
aVac.si
p579
aVorg.pe
p580
aVac.sg
p581
aVac.sd
p582
aVde
p583
aVac.sb
p584
aVac.sc
p585
aVac.sa
p586
aVdz
p587
aVac.sx
p588
aVac.sy
p589
aVac.sv
p590
aVco.hu
p591
aVac.st
p592
aVac.su
p593
aVac.sr
p594
aVco.ps
p595
aVorg.wf
p596
aVorg.dj
p597
aVorg.dk
p598
aVorg.do
p599
aV\u0438\u0441\u043f\u044b\u0442\u0430\u043d\u0438\u0435
p600
aVorg.dm
p601
aVorg.de
p602
aVqa
p603
aV\u65b0\u52a0\u5761
p604
aVorg.om
p605
aVorg.sk
p606
aVac.ps
p607
aVac.pr
p608
aVorg.ve
p609
aVorg.vg
p610
aV\u0627\u0644\u0645\u063a\u0631\u0628
p611
aVorg.vc
p612
aVorg.vn
p613
aVorg.vi
p614
aVac.iq
p615
aVorg.vu
p616
aVorg.ug
p617
aVco.om
p618
aVac.ni
p619
aVwf
p620
aVjobs
p621
aVac.nl
p622
aVac.no
p623
aVac.na
p624
aVac.ne
p625
aVac.nc
p626
aVjp
p627
aVorg.km
p628
aVac.nf
p629
aVjm
p630
aVjo
p631
aVws
p632
aVac.ng
p633
aVje
p634
aVac.nr
p635
aVac.nu
p636
aVco.hk
p637
aVac.ad
p638
aVac.ae
p639
aVac.af
p640
aVac.ag
p641
aVac.ac
p642
aVac.al
p643
aVac.am
p644
aVac.an
p645
aVac.ao
p646
aVac.ai
p647
aVac.at
p648
aVac.au
p649
aVac.aw
p650
aVac.aq
p651
aVac.ar
p652
aVac.as
p653
aVac.kz
p654
aVcom
p655
aVac.az
p656
aVck
p657
aVci
p658
aVch
p659
aVco
p660
aVcn
p661
aVcm
p662
aVcl
p663
aVcc
p664
aVco.td
p665
aVca
p666
aVcg
p667
aVcf
p668
aVcd
p669
aVcz
p670
aVcy
p671
aVcx
p672
aVac.np
p673
aVcr
p674
aVcw
p675
aVcv
p676
aVcu
p677
aVorg.ae
p678
aVorg.ad
p679
aVorg.ag
p680
aVorg.af
p681
aVco.rs
p682
aVpw
p683
aVorg.ac
p684
aVorg.am
p685
aVorg.al
p686
aVorg.ao
p687
aVpy
p688
aVorg.ai
p689
aVorg.mf
p690
aVorg.au
p691
aVint
p692
aVorg.aw
p693
aVpa
p694
aVpf
p695
aVpg
p696
aVorg.as
p697
aVpe
p698
aVco.ro
p699
aVpk
p700
aVph
p701
aVpn
p702
aVorg.ax
p703
aVpl
p704
aVpm
p705
aVac.ws
p706
aVco.ye
p707
aVac.cr
p708
aVaero
p709
aVac.wf
p710
aVco.yt
p711
aVco.dz
p712
aV\u0b87\u0ba8\u0bcd\u0ba4\u0bbf\u0baf\u0bbe
p713
aVac.cn
p714
aVorg.kh
p715
aVorg.ht
p716
aVorg.hu
p717
aVorg.hr
p718
aVac.cl
p719
aVorg.hn
p720
aVac.cm
p721
aVorg.hk
p722
aVac.ck
p723
aVva
p724
aVorg.kw
p725
aVvc
p726
aV\u0dbd\u0d82\u0d9a\u0dcf
p727
aVve
p728
aVorg.st
p729
aVvg
p730
aViq
p731
aVvi
p732
aVis
p733
aVir
p734
aVit
p735
aVvn
p736
aVac.ki
p737
aVorg.so
p738
aVac.kw
p739
aVorg.sm
p740
aVorg.la
p741
aVim
p742
aVvu
p743
aVio
p744
aVin
p745
aV\u0baa\u0bb0\u0bbf\u0b9f\u0bcd\u0b9a\u0bc8
p746
aVorg.se
p747
aVorg.sd
p748
aVie
p749
aVid
p750
aVorg.sa
p751
aVac.ky
p752
aVco.ky
p753
aVco.kz
p754
aVco.tj
p755
aVorg.zm
p756
aVco.st
p757
aVil
p758
aVorg.za
p759
aVco.kr
p760
aVorg.gh
p761
aVco.kw
p762
aVco.kh
p763
aV\u0a2d\u0a3e\u0a30\u0a24
p764
aVco.km
p765
aVco.kn
p766
aVorg.lk
p767
aVco.ke
p768
aVco.kg
p769
aVac.by
p770
aVac.bz
p771
aVac.bt
p772
aVac.bw
p773
aVac.bv
p774
aVac.bq
p775
aVac.zw
p776
aVac.bs
p777
aVac.br
p778
aVac.bm
p779
aVac.bl
p780
aVac.bo
p781
aVac.bn
p782
aVac.bi
p783
aVac.bh
p784
aVac.nz
p785
aVac.bj
p786
aVac.be
p787
aVac.bd
p788
aVac.bg
p789
aVac.bf
p790
aVac.ba
p791
aVac.bb
p792
aV\u6e2c\u8a66
p793
aVorg.su
p794
aVmobi
p795
aVorg.ls
p796
aVac.ax
p797
aVco.cg
p798
aVac.ee
p799
aVac.eg
p800
aVco.tl
p801
aVorg.lv
p802
aVac.er
p803
aVac.es
p804
aVac.et
p805
aVac.eu
p806
aVac.pk
p807
aVac.ph
p808
aVac.pn
p809
aVac.pm
p810
aVac.pl
p811
aVac.pa
p812
aVorg.lu
p813
aVac.pg
p814
aVac.pf
p815
aVac.pe
p816
aVco.th
p817
aVac.py
p818
aVco.tk
p819
aVorg.kr
p820
aVco.ms
p821
aV\u0443\u043a\u0440
p822
aVco.co
p823
aVac.pw
p824
aVac.pt
p825
aVorg.eh
p826
aVorg.ua
p827
aVco.tt
p828
aVorg.ec
p829
aVorg.ee
p830
aVco.tw
p831
aVorg.eg
p832
aVco.tv
p833
aVorg.es
p834
aVorg.er
p835
aVorg.eu
p836
aVorg.et
p837
aVorg.lb
p838
aVorg.lc
p839
aVco.et
p840
aVco.eu
p841
aVco.er
p842
aVco.es
p843
aVco.ug
p844
aV\u0627\u0644\u0633\u0639\u0648\u062f\u064a\u0629
p845
aVorg.nu
p846
aVorg.li
p847
aVorg.tw
p848
aVorg.lr
p849
aVco.eg
p850
aVco.ee
p851
aVbiz
p852
aVco.ec
p853
aVorg.lt
p854
aVco.cy
p855
aVorg.ly
p856
aVco.eh
p857
aVac.sj
p858
aVco.kp
p859
aVco.li
p860
aVco.lk
p861
aVco.la
p862
aVco.lc
p863
aVco.lb
p864
aVco.ly
p865
aVco.lu
p866
aVco.lt
p867
aVco.lv
p868
aVco.ls
p869
aVco.lr
p870
aV\u0639\u0645\u0627\u0646
p871
aVac.om
p872
aVco.mx
p873
aV\u0627\u0644\u062c\u0632\u0627\u0626\u0631
p874
aVorg.ru
p875
aVac.fi
p876
aVac.fk
p877
aVac.fj
p878
aVac.fm
p879
aVac.fo
p880
aV\u0aad\u0abe\u0ab0\u0aa4
p881
aVac.fr
p882
aVac.cz
p883
aVbd
p884
aVbe
p885
aVbf
p886
aVbg
p887
aVba
p888
aVbb
p889
aVps
p890
aVbl
p891
aVbm
p892
aVbn
p893
aVbo
p894
aVbh
p895
aVbi
p896
aVbj
p897
aV\u0641\u0644\u0633\u0637\u064a\u0646
p898
aVbt
p899
aVac.lt
p900
aVbv
p901
aVbw
p902
aVbq
p903
aVbr
p904
aVbs
p905
aVby
p906
aVbz
p907
aV\u0628\u06be\u0627\u0631\u062a
p908
aVom
p909
aVpt
p910
aVac.yt
p911
aV\u0627\u0644\u064a\u0645\u0646
p912
aVco.wf
p913
aVac.cx
p914
aVac.ye
p915
aVac.zm
p916
aVac.jp
p917
aV\u092a\u0930\u0940\u0915\u094d\u0937\u093e
p918
aV\u05d8\u05e2\u05e1\u05d8
p919
aVco.zm
p920
aVorg.an
p921
aVac.tz
p922
aVac.tw
p923
aVco.hm
p924
aVac.tt
p925
aVac.tr
p926
aVco.za
p927
aVac.tp
p928
aVac.to
p929
aVac.tn
p930
aVac.tm
p931
aVac.tl
p932
aVac.cy
p933
aVac.tj
p934
aVac.th
p935
aVac.tg
p936
aVac.tf
p937
aVac.td
p938
aVac.tc
p939
aVorg.ky
p940
aVorg.at
p941
aVorg.it
p942
aVmuseum
p943
aVorg.iq
p944
aVco.re
p945
aVorg.is
p946
aVorg.ir
p947
aVorg.im
p948
aVorg.il
p949
aVac.cv
p950
aVorg.in
p951
aVorg.ie
p952
aVorg.aq
p953
aVorg.me
p954
aVco.az
p955
aVorg.pw
p956
aVco.ax
p957
aVorg.pr
p958
aVorg.ps
p959
aVhr
p960
aVco.as
p961
aVco.aq
p962
aVco.aw
p963
aVht
p964
aVhu
p965
aVorg.pf
p966
aVhk
p967
aVco.ai
p968
aVhn
p969
aVco.ao
p970
aVco.al
p971
aVhm
p972
aVorg.pn
p973
aVco.ac
p974
aVorg.pl
p975
aVorg.pm
p976
aVco.af
p977
aVco.ag
p978
aVco.ad
p979
aVco.ae
p980
aVinfo
p981
aVco.hr
p982
aVuy
p983
aVco.ht
p984
aVuz
p985
aV\u0625\u062e\u062a\u0628\u0627\u0631
p986
aVus
p987
aVum
p988
aVco.ki
p989
aVuk
p990
aVorg.bi
p991
aV\u0627\u0644\u0627\u0631\u062f\u0646
p992
aVug
p993
aVorg.az
p994
aVua
p995
aVco.sz
p996
aVco.hn
p997
aVco.sr
p998
aVac
p999
aVae
p1000
aVad
p1001
aVag
p1002
aVaf
p1003
aVai
p1004
aVac.cw
p1005
aVac.cu
p1006
aVam
p1007
aVal
p1008
aVao
p1009
aVan
p1010
aVaq
p1011
aVac.co
p1012
aVas
p1013
aVar
p1014
aVau
p1015
aVat
p1016
aVaw
p1017
aVac.ci
p1018
aVac.cf
p1019
aVax
p1020
aVac.cd
p1021
aVaz
p1022
aVac.cc
p1023
aVac.ca
p1024
aVni
p1025
aVco.tg
p1026
aVco.tf
p1027
aVnl
p1028
aVco.tc
p1029
aVno
p1030
aVco.tm
p1031
aVna
p1032
aVco.to
p1033
aVnc
p1034
aVne
p1035
aVnf
p1036
aVng
p1037
aV\u53f0\u7063
p1038
aVnz
p1039
aVco.sc
p1040
aVac.za
p1041
aVco.tp
p1042
aVco.tr
p1043
aVnp
p1044
aVco.sd
p1045
aVnr
p1046
aVac.vn
p1047
aVnu
p1048
aVco.tz
p1049
aVxxx
p1050
aVorg.gr
p1051
aVco.sg
p1052
aVco.sv
p1053
aVorg.gp
p1054
aVac.ly
p1055
aVco.si
p1056
aVco.su
p1057
aV\u03b4\u03bf\u03ba\u03b9\u03bc\u03ae
p1058
aVco.je
p1059
aVorg.ba
p1060
aVorg.bb
p1061
aVorg.bd
p1062
aVorg.be
p1063
aVorg.bf
p1064
aVorg.bg
p1065
aVorg.bh
p1066
aVpr
p1067
aVorg.bj
p1068
aVorg.gt
p1069
aVorg.bl
p1070
aVorg.bm
p1071
aVorg.bn
p1072
aVorg.bo
p1073
aVorg.bq
p1074
aVorg.br
p1075
aVorg.bs
p1076
aVorg.bt
p1077
aVco.se
p1078
aVorg.bv
p1079
aVorg.bw
p1080
aVco.sh
p1081
aVorg.by
p1082
aVorg.bz
p1083
aVco.sk
p1084
aVco.sl
p1085
aVco.sm
p1086
aVco.sn
p1087
aVac.lb
p1088
atRp1089
.